target datalayout = "e-m:e-p270:32:32-p271:32:32-p272:64:64-i64:64-i128:128-f80:128-n8:16:32:64-S128"
target triple = "x86_64-pc-linux-gnu"

%class.btQuantizedBvh = type <{ ptr, %class.btVector3, %class.btVector3, %class.btVector3, i32, i32, i8, [7 x i8], %class.btAlignedObjectArray, %class.btAlignedObjectArray, %class.btAlignedObjectArray.0, %class.btAlignedObjectArray.0, i32, [4 x i8], %class.btAlignedObjectArray.2, i32, [4 x i8] }>
%class.btVector3 = type { [4 x float] }
%class.btAlignedObjectArray = type <{ [4 x i8], i32, i32, [4 x i8], ptr, i8, [7 x i8] }>
%class.btAlignedObjectArray.0 = type <{ [4 x i8], i32, i32, [4 x i8], ptr, i8, [7 x i8] }>
%class.btAlignedObjectArray.2 = type <{ [4 x i8], i32, i32, [4 x i8], ptr, i8, [7 x i8] }>
%struct.btQuantizedBvhNode = type { [3 x i16], [3 x i16], i32 }
%struct.btOptimizedBvhNode = type { %class.btVector3, %class.btVector3, i32, i32, i32, [20 x i8] }

; Function Attrs: inlinehint mustprogress nounwind uwtable
define linkonce_odr dso_local noundef nonnull align 4 dereferenceable(64) ptr @_ZN20btAlignedObjectArrayI18btOptimizedBvhNodeEixEi(ptr noundef nonnull align 8 dereferenceable(25) %0, i32 noundef %1) #3 comdat align 2 {
  %3 = alloca ptr, align 8
  %4 = alloca i32, align 4
  store ptr %0, ptr %3, align 8, !tbaa !37
  store i32 %1, ptr %4, align 4, !tbaa !9
  %5 = load ptr, ptr %3, align 8
  %6 = getelementptr inbounds nuw %class.btAlignedObjectArray, ptr %5, i32 0, i32 4
  %7 = load ptr, ptr %6, align 8, !tbaa !88
  %8 = load i32, ptr %4, align 4, !tbaa !9
  %9 = sext i32 %8 to i64
  %10 = getelementptr inbounds %struct.btOptimizedBvhNode, ptr %7, i64 %9
  ret ptr %10
}

; Function Attrs: inlinehint mustprogress nounwind uwtable
define linkonce_odr dso_local noundef nonnull align 4 dereferenceable(16) ptr @_ZN20btAlignedObjectArrayI18btQuantizedBvhNodeEixEi(ptr noundef nonnull align 8 dereferenceable(25) %0, i32 noundef %1) #3 comdat align 2 {
  %3 = alloca ptr, align 8
  %4 = alloca i32, align 4
  store ptr %0, ptr %3, align 8, !tbaa !39
  store i32 %1, ptr %4, align 4, !tbaa !9
  %5 = load ptr, ptr %3, align 8
  %6 = getelementptr inbounds nuw %class.btAlignedObjectArray.0, ptr %5, i32 0, i32 4
  %7 = load ptr, ptr %6, align 8, !tbaa !56
  %8 = load i32, ptr %4, align 4, !tbaa !9
  %9 = sext i32 %8 to i64
  %10 = getelementptr inbounds %struct.btQuantizedBvhNode, ptr %7, i64 %9
  ret ptr %10
}

; Function Attrs: mustprogress uwtable
define dso_local void @_ZN14btQuantizedBvh13swapLeafNodesEii(ptr noundef nonnull align 8 dereferenceable(244) %0, i32 noundef %1, i32 noundef %2) #2 align 2 {
  %4 = alloca ptr, align 8
  %5 = alloca i32, align 4
  %6 = alloca i32, align 4
  %7 = alloca %struct.btQuantizedBvhNode, align 4
  %8 = alloca %struct.btOptimizedBvhNode, align 4
  store ptr %0, ptr %4, align 8, !tbaa !12
  store i32 %1, ptr %5, align 4, !tbaa !9
  store i32 %2, ptr %6, align 4, !tbaa !9
  %9 = load ptr, ptr %4, align 8
  %10 = getelementptr inbounds nuw %class.btQuantizedBvh, ptr %9, i32 0, i32 6
  %11 = load i8, ptr %10, align 8, !tbaa !30, !range !45, !noundef !46
  %12 = trunc i8 %11 to i1
  br i1 %12, label %13, label %26

13:                                               ; preds = %3
  call void @llvm.lifetime.start.p0(i64 16, ptr %7) #14
  %14 = getelementptr inbounds nuw %class.btQuantizedBvh, ptr %9, i32 0, i32 10
  %15 = load i32, ptr %5, align 4, !tbaa !9
  %16 = call noundef nonnull align 4 dereferenceable(16) ptr @_ZN20btAlignedObjectArrayI18btQuantizedBvhNodeEixEi(ptr noundef nonnull align 8 dereferenceable(25) %14, i32 noundef %15)
  call void @llvm.memcpy.p0.p0.i64(ptr align 4 %7, ptr align 4 %16, i64 16, i1 false), !tbaa.struct !57
  %17 = getelementptr inbounds nuw %class.btQuantizedBvh, ptr %9, i32 0, i32 10
  %18 = load i32, ptr %6, align 4, !tbaa !9
  %19 = call noundef nonnull align 4 dereferenceable(16) ptr @_ZN20btAlignedObjectArrayI18btQuantizedBvhNodeEixEi(ptr noundef nonnull align 8 dereferenceable(25) %17, i32 noundef %18)
  %20 = getelementptr inbounds nuw %class.btQuantizedBvh, ptr %9, i32 0, i32 10
  %21 = load i32, ptr %5, align 4, !tbaa !9
  %22 = call noundef nonnull align 4 dereferenceable(16) ptr @_ZN20btAlignedObjectArrayI18btQuantizedBvhNodeEixEi(ptr noundef nonnull align 8 dereferenceable(25) %20, i32 noundef %21)
  call void @llvm.memcpy.p0.p0.i64(ptr align 4 %22, ptr align 4 %19, i64 16, i1 false), !tbaa.struct !57
  %23 = getelementptr inbounds nuw %class.btQuantizedBvh, ptr %9, i32 0, i32 10
  %24 = load i32, ptr %6, align 4, !tbaa !9
  %25 = call noundef nonnull align 4 dereferenceable(16) ptr @_ZN20btAlignedObjectArrayI18btQuantizedBvhNodeEixEi(ptr noundef nonnull align 8 dereferenceable(25) %23, i32 noundef %24)
  call void @llvm.memcpy.p0.p0.i64(ptr align 4 %25, ptr align 4 %7, i64 16, i1 false), !tbaa.struct !57
  call void @llvm.lifetime.end.p0(i64 16, ptr %7) #14
  br label %39

26:                                               ; preds = %3
  call void @llvm.lifetime.start.p0(i64 64, ptr %8) #14
  %27 = getelementptr inbounds nuw %class.btQuantizedBvh, ptr %9, i32 0, i32 8
  %28 = load i32, ptr %5, align 4, !tbaa !9
  %29 = call noundef nonnull align 4 dereferenceable(64) ptr @_ZN20btAlignedObjectArrayI18btOptimizedBvhNodeEixEi(ptr noundef nonnull align 8 dereferenceable(25) %27, i32 noundef %28)
  call void @llvm.memcpy.p0.p0.i64(ptr align 4 %8, ptr align 4 %29, i64 64, i1 false), !tbaa.struct !71
  %30 = getelementptr inbounds nuw %class.btQuantizedBvh, ptr %9, i32 0, i32 8
  %31 = load i32, ptr %6, align 4, !tbaa !9
  %32 = call noundef nonnull align 4 dereferenceable(64) ptr @_ZN20btAlignedObjectArrayI18btOptimizedBvhNodeEixEi(ptr noundef nonnull align 8 dereferenceable(25) %30, i32 noundef %31)
  %33 = getelementptr inbounds nuw %class.btQuantizedBvh, ptr %9, i32 0, i32 8
  %34 = load i32, ptr %5, align 4, !tbaa !9
  %35 = call noundef nonnull align 4 dereferenceable(64) ptr @_ZN20btAlignedObjectArrayI18btOptimizedBvhNodeEixEi(ptr noundef nonnull align 8 dereferenceable(25) %33, i32 noundef %34)
  call void @llvm.memcpy.p0.p0.i64(ptr align 4 %35, ptr align 4 %32, i64 64, i1 false), !tbaa.struct !71
  %36 = getelementptr inbounds nuw %class.btQuantizedBvh, ptr %9, i32 0, i32 8
  %37 = load i32, ptr %6, align 4, !tbaa !9
  %38 = call noundef nonnull align 4 dereferenceable(64) ptr @_ZN20btAlignedObjectArrayI18btOptimizedBvhNodeEixEi(ptr noundef nonnull align 8 dereferenceable(25) %36, i32 noundef %37)
  call void @llvm.memcpy.p0.p0.i64(ptr align 4 %38, ptr align 4 %8, i64 64, i1 false), !tbaa.struct !71
  call void @llvm.lifetime.end.p0(i64 64, ptr %8) #14
  br label %39

39:                                               ; preds = %26, %13
  ret void
}