; Function Attrs: mustprogress nofree norecurse nosync nounwind willreturn memory(readwrite, inaccessiblemem: none) uwtable
define dso_local void @_ZN14btQuantizedBvh13swapLeafNodesEii(ptr noundef nonnull readonly align 8 captures(none) dereferenceable(244) %0, i32 noundef %1, i32 noundef %2) local_unnamed_addr #8 align 2 {
  %4 = alloca %struct.btQuantizedBvhNode, align 4
  %5 = alloca %struct.btOptimizedBvhNode, align 4
  %6 = getelementptr inbounds nuw i8, ptr %0, i64 64
  %7 = load i8, ptr %6, align 8, !tbaa !24, !range !46, !noundef !47
  %8 = trunc nuw i8 %7 to i1
  %9 = sext i32 %1 to i64
  %10 = sext i32 %2 to i64
  br i1 %8, label %11, label %18

11:                                               ; preds = %3
  call void @llvm.lifetime.start.p0(i64 16, ptr nonnull %4)
  %12 = getelementptr inbounds nuw i8, ptr %0, i64 152
  %13 = load ptr, ptr %12, align 8, !tbaa !30
  %14 = getelementptr inbounds %struct.btQuantizedBvhNode, ptr %13, i64 %9
  call void @llvm.memcpy.p0.p0.i64(ptr noundef nonnull align 4 dereferenceable(16) %4, ptr noundef nonnull align 4 dereferenceable(16) %14, i64 16, i1 false), !tbaa.struct !41
  %15 = getelementptr inbounds %struct.btQuantizedBvhNode, ptr %13, i64 %10
  tail call void @llvm.memcpy.p0.p0.i64(ptr noundef nonnull align 4 dereferenceable(16) %14, ptr noundef nonnull align 4 dereferenceable(16) %15, i64 16, i1 false), !tbaa.struct !41
  %16 = load ptr, ptr %12, align 8, !tbaa !30
  %17 = getelementptr inbounds %struct.btQuantizedBvhNode, ptr %16, i64 %10
  call void @llvm.memcpy.p0.p0.i64(ptr noundef nonnull align 4 dereferenceable(16) %17, ptr noundef nonnull align 4 dereferenceable(16) %4, i64 16, i1 false), !tbaa.struct !41
  call void @llvm.lifetime.end.p0(i64 16, ptr nonnull %4)
  br label %25

18:                                               ; preds = %3
  call void @llvm.lifetime.start.p0(i64 64, ptr nonnull %5)
  %19 = getelementptr inbounds nuw i8, ptr %0, i64 88
  %20 = load ptr, ptr %19, align 8, !tbaa !26
  %21 = getelementptr inbounds %struct.btOptimizedBvhNode, ptr %20, i64 %9
  call void @llvm.memcpy.p0.p0.i64(ptr noundef nonnull align 4 dereferenceable(64) %5, ptr noundef nonnull align 4 dereferenceable(64) %21, i64 64, i1 false), !tbaa.struct !59
  %22 = getelementptr inbounds %struct.btOptimizedBvhNode, ptr %20, i64 %10
  tail call void @llvm.memcpy.p0.p0.i64(ptr noundef nonnull align 4 dereferenceable(64) %21, ptr noundef nonnull align 4 dereferenceable(64) %22, i64 64, i1 false), !tbaa.struct !59
  %23 = load ptr, ptr %19, align 8, !tbaa !26
  %24 = getelementptr inbounds %struct.btOptimizedBvhNode, ptr %23, i64 %10
  call void @llvm.memcpy.p0.p0.i64(ptr noundef nonnull align 4 dereferenceable(64) %24, ptr noundef nonnull align 4 dereferenceable(64) %5, i64 64, i1 false), !tbaa.struct !59
  call void @llvm.lifetime.end.p0(i64 64, ptr nonnull %5)
  br label %25

25:                                               ; preds = %18, %11
  ret void
}